; Function Attrs: mustprogress nounwind uwtable
define internal void @_ZN9grpc_core12_GLOBAL__N_120Chttp2ServerListener16ActiveConnection16HandshakingStateD0Ev(ptr noundef nonnull align 8 dereferenceable(120) %this) unnamed_addr #5 align 2 personality ptr @__gxx_personality_v0 {
entry:
  store ptr getelementptr inbounds ({ [5 x ptr] }, ptr @_ZTVN9grpc_core12_GLOBAL__N_120Chttp2ServerListener16ActiveConnection16HandshakingStateE, i64 0, i32 0, i64 2), ptr %this, align 8
  %interested_parties_.i = getelementptr inbounds i8, ptr %this, i64 112
  %0 = load ptr, ptr %interested_parties_.i, align 8
  %accepting_pollset_.i = getelementptr inbounds i8, ptr %this, i64 24
  %1 = load ptr, ptr %accepting_pollset_.i, align 8
  invoke void @_Z28grpc_pollset_set_del_pollsetP16grpc_pollset_setP12grpc_pollset(ptr noundef %0, ptr noundef %1)
          to label %invoke.cont.i unwind label %terminate.lpad.i

invoke.cont.i:                                    ; preds = %entry
  %2 = load ptr, ptr %interested_parties_.i, align 8
  invoke void @_Z24grpc_pollset_set_destroyP16grpc_pollset_set(ptr noundef %2)
          to label %invoke.cont3.i unwind label %terminate.lpad.i

invoke.cont3.i:                                   ; preds = %invoke.cont.i
  %acceptor_.i = getelementptr inbounds i8, ptr %this, i64 32
  %3 = load ptr, ptr %acceptor_.i, align 8
  invoke void @gpr_free(ptr noundef %3)
          to label %invoke.cont4.i unwind label %terminate.lpad.i

invoke.cont4.i:                                   ; preds = %invoke.cont3.i
  %handshake_mgr_.i = getelementptr inbounds i8, ptr %this, i64 40
  %4 = load ptr, ptr %handshake_mgr_.i, align 8
  %cmp.not.i.i = icmp eq ptr %4, null
  br i1 %cmp.not.i.i, label %_ZN9grpc_core13RefCountedPtrINS_16HandshakeManagerEED2Ev.exit.i, label %if.then.i.i

if.then.i.i:                                      ; preds = %invoke.cont4.i
  %refs_.i.i.i = getelementptr inbounds i8, ptr %4, i64 8
  %5 = atomicrmw sub ptr %refs_.i.i.i, i64 1 acq_rel, align 8
  %cmp.i.i.i.i = icmp eq i64 %5, 1
  br i1 %cmp.i.i.i.i, label %if.then.i.i.i, label %_ZN9grpc_core13RefCountedPtrINS_16HandshakeManagerEED2Ev.exit.i

if.then.i.i.i:                                    ; preds = %if.then.i.i
  %vtable.i.i.i.i = load ptr, ptr %4, align 8
  %vfn.i.i.i.i = getelementptr inbounds i8, ptr %vtable.i.i.i.i, i64 8
  %6 = load ptr, ptr %vfn.i.i.i.i, align 8
  tail call void %6(ptr noundef nonnull align 8 dereferenceable(216) %4) #25
  br label %_ZN9grpc_core13RefCountedPtrINS_16HandshakeManagerEED2Ev.exit.i

_ZN9grpc_core13RefCountedPtrINS_16HandshakeManagerEED2Ev.exit.i: ; preds = %if.then.i.i.i, %if.then.i.i, %invoke.cont4.i
  %connection_.i = getelementptr inbounds i8, ptr %this, i64 16
  %connection_.val.i = load ptr, ptr %connection_.i, align 8
  %cmp.not.i1.i = icmp eq ptr %connection_.val.i, null
  br i1 %cmp.not.i1.i, label %_ZN9grpc_core12_GLOBAL__N_120Chttp2ServerListener16ActiveConnection16HandshakingStateD2Ev.exit, label %if.then.i2.i

if.then.i2.i:                                     ; preds = %_ZN9grpc_core13RefCountedPtrINS_16HandshakeManagerEED2Ev.exit.i
  %refs_.i.i3.i = getelementptr inbounds i8, ptr %connection_.val.i, i64 8
  %7 = atomicrmw sub ptr %refs_.i.i3.i, i64 1 acq_rel, align 8
  %cmp.i.i.i4.i = icmp eq i64 %7, 1
  br i1 %cmp.i.i.i4.i, label %if.then.i.i5.i, label %_ZN9grpc_core12_GLOBAL__N_120Chttp2ServerListener16ActiveConnection16HandshakingStateD2Ev.exit

if.then.i.i5.i:                                   ; preds = %if.then.i2.i
  %vtable.i.i.i6.i = load ptr, ptr %connection_.val.i, align 8
  %vfn.i.i.i7.i = getelementptr inbounds i8, ptr %vtable.i.i.i6.i, i64 16
  %8 = load ptr, ptr %vfn.i.i.i7.i, align 8
  tail call void %8(ptr noundef nonnull align 8 dereferenceable(113) %connection_.val.i) #25
  br label %_ZN9grpc_core12_GLOBAL__N_120Chttp2ServerListener16ActiveConnection16HandshakingStateD2Ev.exit

terminate.lpad.i:                                 ; preds = %invoke.cont3.i, %invoke.cont.i, %entry
  %9 = landingpad { ptr, i32 }
          catch ptr null
  %10 = extractvalue { ptr, i32 } %9, 0
  tail call void @__clang_call_terminate(ptr %10) #24
  unreachable

_ZN9grpc_core12_GLOBAL__N_120Chttp2ServerListener16ActiveConnection16HandshakingStateD2Ev.exit: ; preds = %_ZN9grpc_core13RefCountedPtrINS_16HandshakeManagerEED2Ev.exit.i, %if.then.i2.i, %if.then.i.i5.i
  tail call void @_ZdlPv(ptr noundef nonnull %this) #28
  ret void
}